; ModuleID = '4/1220.c'
source_filename = "4/1220.c"
target datalayout = "e-m:e-p270:32:32-p271:32:32-p272:64:64-i64:64-f80:128-n8:16:32:64-S128"
target triple = "x86_64-pc-linux-gnu"

@.str = private unnamed_addr constant [6 x i8] c"%d %d\00", align 1
@.str.1 = private unnamed_addr constant [3 x i8] c"%d\00", align 1
@.str.2 = private unnamed_addr constant [4 x i8] c"%d\0A\00", align 1

; Function Attrs: noinline nounwind uwtable
define dso_local void @main() #0 {
  %1 = alloca [160 x i32]*, align 8
  %2 = alloca i32, align 4
  %3 = alloca i32, align 4
  %4 = alloca i32, align 4
  %5 = alloca i32, align 4
  %6 = alloca i32, align 4
  %7 = alloca i32, align 4
  %8 = call noalias i8* @malloc(i64 440) #3
  %9 = bitcast i8* %8 to [160 x i32]*
  store [160 x i32]* %9, [160 x i32]** %1, align 8
  %10 = call i32 (i8*, ...) @__isoc99_scanf(i8* getelementptr inbounds ([6 x i8], [6 x i8]* @.str, i64 0, i64 0), i32* %5, i32* %6)
  store i32 0, i32* %3, align 4
  br label %11

11:                                               ; preds = %34, %0
  %12 = load i32, i32* %3, align 4
  %13 = load i32, i32* %5, align 4
  %14 = icmp slt i32 %12, %13
  br i1 %14, label %15, label %37

15:                                               ; preds = %11
  store i32 0, i32* %2, align 4
  br label %16

16:                                               ; preds = %30, %15
  %17 = load i32, i32* %2, align 4
  %18 = load i32, i32* %6, align 4
  %19 = icmp slt i32 %17, %18
  br i1 %19, label %20, label %33

20:                                               ; preds = %16
  %21 = load [160 x i32]*, [160 x i32]** %1, align 8
  %22 = load i32, i32* %3, align 4
  %23 = sext i32 %22 to i64
  %24 = getelementptr inbounds [160 x i32], [160 x i32]* %21, i64 %23
  %25 = getelementptr inbounds [160 x i32], [160 x i32]* %24, i64 0, i64 0
  %26 = load i32, i32* %2, align 4
  %27 = sext i32 %26 to i64
  %28 = getelementptr inbounds i32, i32* %25, i64 %27
  %29 = call i32 (i8*, ...) @__isoc99_scanf(i8* getelementptr inbounds ([3 x i8], [3 x i8]* @.str.1, i64 0, i64 0), i32* %28)
  br label %30

30:                                               ; preds = %20
  %31 = load i32, i32* %2, align 4
  %32 = add nsw i32 %31, 1
  store i32 %32, i32* %2, align 4
  br label %16

33:                                               ; preds = %16
  br label %34

34:                                               ; preds = %33
  %35 = load i32, i32* %3, align 4
  %36 = add nsw i32 %35, 1
  store i32 %36, i32* %3, align 4
  br label %11

37:                                               ; preds = %11
  store i32 0, i32* %4, align 4
  br label %38

38:                                               ; preds = %85, %37
  %39 = load i32, i32* %4, align 4
  %40 = load i32, i32* %6, align 4
  %41 = icmp slt i32 %39, %40
  br i1 %41, label %42, label %88

42:                                               ; preds = %38
  store i32 0, i32* %3, align 4
  %43 = load i32, i32* %4, align 4
  store i32 %43, i32* %2, align 4
  br label %44

44:                                               ; preds = %79, %42
  %45 = load i32, i32* %2, align 4
  %46 = icmp sge i32 %45, 0
  br i1 %46, label %47, label %51

47:                                               ; preds = %44
  %48 = load i32, i32* %3, align 4
  %49 = load i32, i32* %5, align 4
  %50 = icmp slt i32 %48, %49
  br label %51

51:                                               ; preds = %47, %44
  %52 = phi i1 [ false, %44 ], [ %50, %47 ]
  br i1 %52, label %53, label %84

53:                                               ; preds = %51
  %54 = load i32, i32* %2, align 4
  %55 = icmp sge i32 %54, 0
  br i1 %55, label %56, label %78

56:                                               ; preds = %53
  %57 = load i32, i32* %2, align 4
  %58 = load i32, i32* %6, align 4
  %59 = icmp slt i32 %57, %58
  br i1 %59, label %60, label %78

60:                                               ; preds = %56
  %61 = load i32, i32* %3, align 4
  %62 = icmp sge i32 %61, 0
  br i1 %62, label %63, label %78

63:                                               ; preds = %60
  %64 = load i32, i32* %3, align 4
  %65 = load i32, i32* %5, align 4
  %66 = icmp slt i32 %64, %65
  br i1 %66, label %67, label %78

67:                                               ; preds = %63
  %68 = load [160 x i32]*, [160 x i32]** %1, align 8
  %69 = load i32, i32* %3, align 4
  %70 = sext i32 %69 to i64
  %71 = getelementptr inbounds [160 x i32], [160 x i32]* %68, i64 %70
  %72 = getelementptr inbounds [160 x i32], [160 x i32]* %71, i64 0, i64 0
  %73 = load i32, i32* %2, align 4
  %74 = sext i32 %73 to i64
  %75 = getelementptr inbounds i32, i32* %72, i64 %74
  %76 = load i32, i32* %75, align 4
  %77 = call i32 (i8*, ...) @printf(i8* getelementptr inbounds ([4 x i8], [4 x i8]* @.str.2, i64 0, i64 0), i32 %76)
  br label %78

78:                                               ; preds = %67, %63, %60, %56, %53
  br label %79

79:                                               ; preds = %78
  %80 = load i32, i32* %3, align 4
  %81 = add nsw i32 %80, 1
  store i32 %81, i32* %3, align 4
  %82 = load i32, i32* %2, align 4
  %83 = add nsw i32 %82, -1
  store i32 %83, i32* %2, align 4
  br label %44

84:                                               ; preds = %51
  br label %85

85:                                               ; preds = %84
  %86 = load i32, i32* %4, align 4
  %87 = add nsw i32 %86, 1
  store i32 %87, i32* %4, align 4
  br label %38

88:                                               ; preds = %38
  store i32 1, i32* %4, align 4
  br label %89

89:                                               ; preds = %128, %88
  %90 = load i32, i32* %4, align 4
  %91 = load i32, i32* %5, align 4
  %92 = icmp slt i32 %90, %91
  br i1 %92, label %93, label %131

93:                                               ; preds = %89
  %94 = load i32, i32* %4, align 4
  store i32 %94, i32* %3, align 4
  store i32 0, i32* %2, align 4
  br label %95

95:                                               ; preds = %122, %93
  %96 = load i32, i32* %3, align 4
  %97 = load i32, i32* %5, align 4
  %98 = icmp slt i32 %96, %97
  br i1 %98, label %99, label %104

99:                                               ; preds = %95
  %100 = load i32, i32* %2, align 4
  %101 = load i32, i32* %6, align 4
  %102 = sub nsw i32 %101, 1
  %103 = icmp sle i32 %100, %102
  br label %104

104:                                              ; preds = %99, %95
  %105 = phi i1 [ false, %95 ], [ %103, %99 ]
  br i1 %105, label %106, label %127

106:                                              ; preds = %104
  %107 = load [160 x i32]*, [160 x i32]** %1, align 8
  %108 = load i32, i32* %3, align 4
  %109 = sext i32 %108 to i64
  %110 = getelementptr inbounds [160 x i32], [160 x i32]* %107, i64 %109
  %111 = getelementptr inbounds [160 x i32], [160 x i32]* %110, i64 0, i64 0
  %112 = load i32, i32* %6, align 4
  %113 = sext i32 %112 to i64
  %114 = getelementptr inbounds i32, i32* %111, i64 %113
  %115 = load i32, i32* %2, align 4
  %116 = sext i32 %115 to i64
  %117 = sub i64 0, %116
  %118 = getelementptr inbounds i32, i32* %114, i64 %117
  %119 = getelementptr inbounds i32, i32* %118, i64 -1
  %120 = load i32, i32* %119, align 4
  %121 = call i32 (i8*, ...) @printf(i8* getelementptr inbounds ([4 x i8], [4 x i8]* @.str.2, i64 0, i64 0), i32 %120)
  br label %122

122:                                              ; preds = %106
  %123 = load i32, i32* %3, align 4
  %124 = add nsw i32 %123, 1
  store i32 %124, i32* %3, align 4
  %125 = load i32, i32* %2, align 4
  %126 = add nsw i32 %125, 1
  store i32 %126, i32* %2, align 4
  br label %95

127:                                              ; preds = %104
  br label %128

128:                                              ; preds = %127
  %129 = load i32, i32* %4, align 4
  %130 = add nsw i32 %129, 1
  store i32 %130, i32* %4, align 4
  br label %89

131:                                              ; preds = %89
  ret void
}

; Function Attrs: nounwind
declare dso_local noalias i8* @malloc(i64) #1

declare dso_local i32 @__isoc99_scanf(i8*, ...) #2

declare dso_local i32 @printf(i8*, ...) #2


!llvm.module.flags = !{!0}
!llvm.ident = !{!1}

!0 = !{i32 1, !"wchar_size", i32 4}
!1 = !{!"clang version 10.0.0-4ubuntu1 "}
